target datalayout = "e-m:e-p270:32:32-p271:32:32-p272:64:64-i64:64-i128:128-f80:128-n8:16:32:64-S128"
target triple = "x86_64-pc-linux-gnu"

%struct.FSMAddress = type { i32, i32 }
%struct.SMgrRelationData = type { %struct.RelFileLocatorBackend, i32, [4 x i32], i32, [4 x i32], [4 x ptr], i32, %struct.dlist_node }
%struct.RelFileLocatorBackend = type { %struct.RelFileLocator, i32 }
%struct.RelFileLocator = type { i32, i32, i32 }
%struct.dlist_node = type { ptr, ptr }
%struct.RelationData = type { %struct.RelFileLocator, ptr, i32, i32, i8, i8, i8, i8, i8, i32, i32, i32, i32, ptr, ptr, i32, %struct.LockInfoData, ptr, ptr, ptr, ptr, ptr, i8, ptr, ptr, ptr, ptr, ptr, ptr, i32, ptr, i8, ptr, ptr, i32, i8, i32, ptr, i8, ptr, ptr, ptr, ptr, ptr, ptr, ptr, i32, ptr, ptr, ptr, ptr, ptr, ptr, ptr, ptr, ptr, ptr, ptr, ptr, ptr, ptr, ptr, ptr, ptr, ptr, ptr, i32, i8, ptr }
%struct.LockInfoData = type { %struct.LockRelId }
%struct.LockRelId = type { i32, i32 }

@.str = private unnamed_addr constant [29 x i8] c"invalid FSM request size %zu\00", align 1
@.str.1 = private unnamed_addr constant [12 x i8] c"freespace.c\00", align 1
@__func__.fsm_space_needed_to_cat = private unnamed_addr constant [24 x i8] c"fsm_space_needed_to_cat\00", align 1

; Function Attrs: inlinehint nounwind uwtable
define internal zeroext i1 @BlockNumberIsValid(i32 noundef %0) #4 {
  %2 = alloca i32, align 4
  store i32 %0, ptr %2, align 4
  %3 = load i32, ptr %2, align 4
  %4 = icmp ne i32 %3, -1
  ret i1 %4
}

; Function Attrs: inlinehint nounwind uwtable
define internal ptr @RelationGetSmgr(ptr noundef %0) #4 {
  %2 = alloca ptr, align 8
  %3 = alloca { i64, i32 }, align 8
  store ptr %0, ptr %2, align 8
  %4 = load ptr, ptr %2, align 8
  %5 = getelementptr inbounds nuw %struct.RelationData, ptr %4, i32 0, i32 1
  %6 = load ptr, ptr %5, align 8
  %7 = icmp eq ptr %6, null
  %8 = zext i1 %7 to i32
  %9 = icmp ne i32 %8, 0
  %10 = zext i1 %9 to i32
  %11 = sext i32 %10 to i64
  %12 = call i64 @llvm.expect.i64(i64 %11, i64 0)
  %13 = icmp ne i64 %12, 0
  br i1 %13, label %14, label %30

14:                                               ; preds = %1
  %15 = load ptr, ptr %2, align 8
  %16 = getelementptr inbounds nuw %struct.RelationData, ptr %15, i32 0, i32 0
  %17 = load ptr, ptr %2, align 8
  %18 = getelementptr inbounds nuw %struct.RelationData, ptr %17, i32 0, i32 3
  %19 = load i32, ptr %18, align 4
  call void @llvm.memcpy.p0.p0.i64(ptr align 8 %3, ptr align 8 %16, i64 12, i1 false)
  %20 = getelementptr inbounds nuw { i64, i32 }, ptr %3, i32 0, i32 0
  %21 = load i64, ptr %20, align 8
  %22 = getelementptr inbounds nuw { i64, i32 }, ptr %3, i32 0, i32 1
  %23 = load i32, ptr %22, align 8
  %24 = call ptr @smgropen(i64 %21, i32 %23, i32 noundef %19)
  %25 = load ptr, ptr %2, align 8
  %26 = getelementptr inbounds nuw %struct.RelationData, ptr %25, i32 0, i32 1
  store ptr %24, ptr %26, align 8
  %27 = load ptr, ptr %2, align 8
  %28 = getelementptr inbounds nuw %struct.RelationData, ptr %27, i32 0, i32 1
  %29 = load ptr, ptr %28, align 8
  call void @smgrpin(ptr noundef %29)
  br label %30

30:                                               ; preds = %14, %1
  %31 = load ptr, ptr %2, align 8
  %32 = getelementptr inbounds nuw %struct.RelationData, ptr %31, i32 0, i32 1
  %33 = load ptr, ptr %32, align 8
  ret ptr %33
}

; Function Attrs: nounwind uwtable
define internal zeroext i1 @fsm_does_block_exist(ptr noundef %0, i32 noundef %1) #0 {
  %3 = alloca ptr, align 8
  %4 = alloca i32, align 4
  %5 = alloca ptr, align 8
  store ptr %0, ptr %3, align 8
  store i32 %1, ptr %4, align 4
  call void @llvm.lifetime.start.p0(i64 8, ptr %5) #8
  %6 = load ptr, ptr %3, align 8
  %7 = call ptr @RelationGetSmgr(ptr noundef %6)
  store ptr %7, ptr %5, align 8
  %8 = load ptr, ptr %5, align 8
  %9 = getelementptr inbounds nuw %struct.SMgrRelationData, ptr %8, i32 0, i32 2
  %10 = getelementptr inbounds [4 x i32], ptr %9, i64 0, i64 0
  %11 = load i32, ptr %10, align 4
  %12 = call zeroext i1 @BlockNumberIsValid(i32 noundef %11)
  br i1 %12, label %13, label %20

13:                                               ; preds = %2
  %14 = load i32, ptr %4, align 4
  %15 = load ptr, ptr %5, align 8
  %16 = getelementptr inbounds nuw %struct.SMgrRelationData, ptr %15, i32 0, i32 2
  %17 = getelementptr inbounds [4 x i32], ptr %16, i64 0, i64 0
  %18 = load i32, ptr %17, align 4
  %19 = icmp ult i32 %14, %18
  br i1 %19, label %25, label %20

20:                                               ; preds = %13, %2
  %21 = load i32, ptr %4, align 4
  %22 = load ptr, ptr %3, align 8
  %23 = call i32 @RelationGetNumberOfBlocksInFork(ptr noundef %22, i32 noundef 0)
  %24 = icmp ult i32 %21, %23
  br label %25

25:                                               ; preds = %20, %13
  %26 = phi i1 [ true, %13 ], [ %24, %20 ]
  call void @llvm.lifetime.end.p0(i64 8, ptr %5) #8
  ret i1 %26
}

; Function Attrs: nounwind uwtable
define internal i32 @fsm_get_heap_blk(i64 %0, i16 noundef zeroext %1) #0 {
  %3 = alloca %struct.FSMAddress, align 4
  %4 = alloca i16, align 2
  store i64 %0, ptr %3, align 4
  store i16 %1, ptr %4, align 2
  %5 = getelementptr inbounds nuw %struct.FSMAddress, ptr %3, i32 0, i32 1
  %6 = load i32, ptr %5, align 4
  %7 = zext i32 %6 to i64
  %8 = mul i64 %7, 4069
  %9 = load i16, ptr %4, align 2
  %10 = zext i16 %9 to i64
  %11 = add i64 %8, %10
  %12 = trunc i64 %11 to i32
  ret i32 %12
}

; Function Attrs: nounwind uwtable
define internal i64 @fsm_get_location(i32 noundef %0, ptr noundef %1) #0 {
  %3 = alloca %struct.FSMAddress, align 4
  %4 = alloca i32, align 4
  %5 = alloca ptr, align 8
  store i32 %0, ptr %4, align 4
  store ptr %1, ptr %5, align 8
  %6 = getelementptr inbounds nuw %struct.FSMAddress, ptr %3, i32 0, i32 0
  store i32 0, ptr %6, align 4
  %7 = load i32, ptr %4, align 4
  %8 = zext i32 %7 to i64
  %9 = udiv i64 %8, 4069
  %10 = trunc i64 %9 to i32
  %11 = getelementptr inbounds nuw %struct.FSMAddress, ptr %3, i32 0, i32 1
  store i32 %10, ptr %11, align 4
  %12 = load i32, ptr %4, align 4
  %13 = zext i32 %12 to i64
  %14 = urem i64 %13, 4069
  %15 = trunc i64 %14 to i16
  %16 = load ptr, ptr %5, align 8
  store i16 %15, ptr %16, align 2
  %17 = load i64, ptr %3, align 4
  ret i64 %17
}

; Function Attrs: nounwind uwtable
define internal zeroext i8 @fsm_space_needed_to_cat(i64 noundef %0) #0 {
  %2 = alloca i8, align 1
  %3 = alloca i64, align 8
  %4 = alloca i32, align 4
  %5 = alloca i32, align 4
  store i64 %0, ptr %3, align 8
  call void @llvm.lifetime.start.p0(i64 4, ptr %4) #8
  %6 = load i64, ptr %3, align 8
  %7 = icmp ugt i64 %6, 8160
  br i1 %7, label %8, label %20

8:                                                ; preds = %1
  br label %9

9:                                                ; preds = %8
  br i1 true, label %10, label %12

10:                                               ; preds = %9
  %11 = call zeroext i1 @errstart_cold(i32 noundef 21, ptr noundef null) #9
  br i1 %11, label %14, label %17

12:                                               ; preds = %9
  %13 = call zeroext i1 @errstart(i32 noundef 21, ptr noundef null)
  br i1 %13, label %14, label %17

14:                                               ; preds = %12, %10
  %15 = load i64, ptr %3, align 8
  %16 = call i32 (ptr, ...) @errmsg_internal(ptr noundef @.str, i64 noundef %15)
  call void @errfinish(ptr noundef @.str.1, i32 noundef 438, ptr noundef @__func__.fsm_space_needed_to_cat)
  br label %17

17:                                               ; preds = %14, %12, %10
  unreachable

18:                                               ; No predecessors!
  br label %19

19:                                               ; preds = %18
  br label %20

20:                                               ; preds = %19, %1
  %21 = load i64, ptr %3, align 8
  %22 = icmp eq i64 %21, 0
  br i1 %22, label %23, label %24

23:                                               ; preds = %20
  store i8 1, ptr %2, align 1
  store i32 1, ptr %5, align 4
  br label %36

24:                                               ; preds = %20
  %25 = load i64, ptr %3, align 8
  %26 = add i64 %25, 32
  %27 = sub i64 %26, 1
  %28 = udiv i64 %27, 32
  %29 = trunc i64 %28 to i32
  store i32 %29, ptr %4, align 4
  %30 = load i32, ptr %4, align 4
  %31 = icmp sgt i32 %30, 255
  br i1 %31, label %32, label %33

32:                                               ; preds = %24
  store i32 255, ptr %4, align 4
  br label %33

33:                                               ; preds = %32, %24
  %34 = load i32, ptr %4, align 4
  %35 = trunc i32 %34 to i8
  store i8 %35, ptr %2, align 1
  store i32 1, ptr %5, align 4
  br label %36

36:                                               ; preds = %33, %23
  call void @llvm.lifetime.end.p0(i64 4, ptr %4) #8
  %37 = load i8, ptr %2, align 1
  ret i8 %37
}

; Function Attrs: nounwind uwtable
define internal zeroext i8 @fsm_space_avail_to_cat(i64 noundef %0) #0 {
  %2 = alloca i8, align 1
  %3 = alloca i64, align 8
  %4 = alloca i32, align 4
  %5 = alloca i32, align 4
  store i64 %0, ptr %3, align 8
  call void @llvm.lifetime.start.p0(i64 4, ptr %4) #8
  %6 = load i64, ptr %3, align 8
  %7 = icmp uge i64 %6, 8160
  br i1 %7, label %8, label %9

8:                                                ; preds = %1
  store i8 -1, ptr %2, align 1
  store i32 1, ptr %5, align 4
  br label %19

9:                                                ; preds = %1
  %10 = load i64, ptr %3, align 8
  %11 = udiv i64 %10, 32
  %12 = trunc i64 %11 to i32
  store i32 %12, ptr %4, align 4
  %13 = load i32, ptr %4, align 4
  %14 = icmp sgt i32 %13, 254
  br i1 %14, label %15, label %16

15:                                               ; preds = %9
  store i32 254, ptr %4, align 4
  br label %16

16:                                               ; preds = %15, %9
  %17 = load i32, ptr %4, align 4
  %18 = trunc i32 %17 to i8
  store i8 %18, ptr %2, align 1
  store i32 1, ptr %5, align 4
  br label %19

19:                                               ; preds = %16, %8
  call void @llvm.lifetime.end.p0(i64 4, ptr %4) #8
  %20 = load i8, ptr %2, align 1
  ret i8 %20
}

; Function Attrs: nounwind uwtable
define dso_local i32 @RecordAndGetPageWithFreeSpace(ptr noundef %0, i32 noundef %1, i64 noundef %2, i64 noundef %3) #0 {
  %5 = alloca i32, align 4
  %6 = alloca ptr, align 8
  %7 = alloca i32, align 4
  %8 = alloca i64, align 8
  %9 = alloca i64, align 8
  %10 = alloca i32, align 4
  %11 = alloca i32, align 4
  %12 = alloca %struct.FSMAddress, align 4
  %13 = alloca i16, align 2
  %14 = alloca i32, align 4
  %15 = alloca %struct.FSMAddress, align 4
  %16 = alloca i32, align 4
  %17 = alloca i32, align 4
  store ptr %0, ptr %6, align 8
  store i32 %1, ptr %7, align 4
  store i64 %2, ptr %8, align 8
  store i64 %3, ptr %9, align 8
  call void @llvm.lifetime.start.p0(i64 4, ptr %10) #8
  %18 = load i64, ptr %8, align 8
  %19 = call zeroext i8 @fsm_space_avail_to_cat(i64 noundef %18)
  %20 = zext i8 %19 to i32
  store i32 %20, ptr %10, align 4
  call void @llvm.lifetime.start.p0(i64 4, ptr %11) #8
  %21 = load i64, ptr %9, align 8
  %22 = call zeroext i8 @fsm_space_needed_to_cat(i64 noundef %21)
  %23 = zext i8 %22 to i32
  store i32 %23, ptr %11, align 4
  call void @llvm.lifetime.start.p0(i64 8, ptr %12) #8
  call void @llvm.lifetime.start.p0(i64 2, ptr %13) #8
  call void @llvm.lifetime.start.p0(i64 4, ptr %14) #8
  call void @llvm.lifetime.start.p0(i64 8, ptr %15) #8
  %24 = load i32, ptr %7, align 4
  %25 = call i64 @fsm_get_location(i32 noundef %24, ptr noundef %13)
  store i64 %25, ptr %15, align 4
  call void @llvm.memcpy.p0.p0.i64(ptr align 4 %12, ptr align 4 %15, i64 8, i1 false)
  call void @llvm.lifetime.end.p0(i64 8, ptr %15) #8
  %26 = load ptr, ptr %6, align 8
  %27 = load i16, ptr %13, align 2
  %28 = load i32, ptr %10, align 4
  %29 = trunc i32 %28 to i8
  %30 = load i32, ptr %11, align 4
  %31 = trunc i32 %30 to i8
  %32 = load i64, ptr %12, align 4
  %33 = call i32 @fsm_set_and_search(ptr noundef %26, i64 %32, i16 noundef zeroext %27, i8 noundef zeroext %29, i8 noundef zeroext %31)
  store i32 %33, ptr %14, align 4
  %34 = load i32, ptr %14, align 4
  %35 = icmp ne i32 %34, -1
  br i1 %35, label %36, label %50

36:                                               ; preds = %4
  call void @llvm.lifetime.start.p0(i64 4, ptr %16) #8
  %37 = load i32, ptr %14, align 4
  %38 = trunc i32 %37 to i16
  %39 = load i64, ptr %12, align 4
  %40 = call i32 @fsm_get_heap_blk(i64 %39, i16 noundef zeroext %38)
  store i32 %40, ptr %16, align 4
  %41 = load ptr, ptr %6, align 8
  %42 = load i32, ptr %16, align 4
  %43 = call zeroext i1 @fsm_does_block_exist(ptr noundef %41, i32 noundef %42)
  br i1 %43, label %44, label %46

44:                                               ; preds = %36
  %45 = load i32, ptr %16, align 4
  store i32 %45, ptr %5, align 4
  store i32 1, ptr %17, align 4
  br label %47

46:                                               ; preds = %36
  store i32 0, ptr %17, align 4
  br label %47

47:                                               ; preds = %46, %44
  call void @llvm.lifetime.end.p0(i64 4, ptr %16) #8
  %48 = load i32, ptr %17, align 4
  switch i32 %48, label %55 [
    i32 0, label %49
  ]

49:                                               ; preds = %47
  br label %50

50:                                               ; preds = %49, %4
  %51 = load ptr, ptr %6, align 8
  %52 = load i32, ptr %11, align 4
  %53 = trunc i32 %52 to i8
  %54 = call i32 @fsm_search(ptr noundef %51, i8 noundef zeroext %53)
  store i32 %54, ptr %5, align 4
  store i32 1, ptr %17, align 4
  br label %55

55:                                               ; preds = %50, %47
  call void @llvm.lifetime.end.p0(i64 4, ptr %14) #8
  call void @llvm.lifetime.end.p0(i64 2, ptr %13) #8
  call void @llvm.lifetime.end.p0(i64 8, ptr %12) #8
  call void @llvm.lifetime.end.p0(i64 4, ptr %11) #8
  call void @llvm.lifetime.end.p0(i64 4, ptr %10) #8
  %56 = load i32, ptr %5, align 4
  ret i32 %56
}