; Function Attrs: nounwind uwtable
define dso_local i32 @RecordAndGetPageWithFreeSpace(ptr noundef %0, i32 noundef %1, i64 noundef %2, i64 noundef %3) local_unnamed_addr #0 {
  %5 = icmp ugt i64 %3, 8160
  br i1 %5, label %6, label %fsm_space_needed_to_cat.exit

6:                                                ; preds = %4
  %7 = tail call zeroext i1 @errstart_cold(i32 noundef 21, ptr noundef null) #7
  tail call void @llvm.assume(i1 %7)
  %8 = tail call i32 (ptr, ...) @errmsg_internal(ptr noundef nonnull @.str, i64 noundef %3) #8
  tail call void @errfinish(ptr noundef nonnull @.str.1, i32 noundef 438, ptr noundef nonnull @__func__.fsm_space_needed_to_cat) #8
  unreachable

fsm_space_needed_to_cat.exit:                     ; preds = %4
  %9 = icmp ugt i64 %2, 8159
  %10 = lshr i64 %2, 5
  %11 = trunc nuw i64 %10 to i8
  %.0.i = select i1 %9, i8 -1, i8 %11
  %12 = icmp eq i64 %3, 0
  %13 = add nuw nsw i64 %3, 31
  %14 = lshr i64 %13, 5
  %15 = trunc i64 %14 to i8
  %.0.i18 = select i1 %12, i8 1, i8 %15
  %16 = udiv i32 %1, 4069
  %17 = urem i32 %1, 4069
  %18 = trunc nuw nsw i32 %17 to i16
  %.sroa.2.0.insert.ext.i = zext nneg i32 %16 to i64
  %.sroa.2.0.insert.shift.i = shl nuw nsw i64 %.sroa.2.0.insert.ext.i, 32
  %19 = tail call fastcc i32 @fsm_set_and_search(ptr noundef %0, i64 %.sroa.2.0.insert.shift.i, i16 noundef zeroext %18, i8 noundef zeroext %.0.i, i8 noundef zeroext %.0.i18)
  %.not = icmp eq i32 %19, -1
  br i1 %.not, label %38, label %20

20:                                               ; preds = %fsm_space_needed_to_cat.exit
  %21 = mul nuw i32 %16, 4069
  %22 = and i32 %19, 65535
  %23 = add i32 %22, %21
  %24 = getelementptr inbounds nuw i8, ptr %0, i64 16
  %25 = load ptr, ptr %24, align 8
  %26 = icmp eq ptr %25, null
  br i1 %26, label %27, label %RelationGetSmgr.exit.i, !prof !4

27:                                               ; preds = %20
  %28 = getelementptr inbounds nuw i8, ptr %0, i64 28
  %29 = load i32, ptr %28, align 4
  %.sroa.0.0.copyload.i.i = load i64, ptr %0, align 8
  %.sroa.2.0..sroa_idx.i.i = getelementptr inbounds nuw i8, ptr %0, i64 8
  %.sroa.2.0.copyload.i.i = load i32, ptr %.sroa.2.0..sroa_idx.i.i, align 8
  %30 = tail call ptr @smgropen(i64 %.sroa.0.0.copyload.i.i, i32 %.sroa.2.0.copyload.i.i, i32 noundef %29) #8
  store ptr %30, ptr %24, align 8
  tail call void @smgrpin(ptr noundef %30) #8
  %.pre.i.i = load ptr, ptr %24, align 8
  br label %RelationGetSmgr.exit.i

RelationGetSmgr.exit.i:                           ; preds = %27, %20
  %31 = phi ptr [ %.pre.i.i, %27 ], [ %25, %20 ]
  %32 = getelementptr inbounds nuw i8, ptr %31, i64 20
  %33 = load i32, ptr %32, align 4
  %34 = icmp ne i32 %33, -1
  %35 = icmp ult i32 %23, %33
  %or.cond.i = and i1 %34, %35
  br i1 %or.cond.i, label %fsm_does_block_exist.exit.thread, label %fsm_does_block_exist.exit

fsm_does_block_exist.exit:                        ; preds = %RelationGetSmgr.exit.i
  %36 = tail call i32 @RelationGetNumberOfBlocksInFork(ptr noundef nonnull %0, i32 noundef 0) #8
  %37 = icmp ult i32 %23, %36
  br i1 %37, label %fsm_does_block_exist.exit.thread, label %38

38:                                               ; preds = %fsm_does_block_exist.exit, %fsm_space_needed_to_cat.exit
  %39 = tail call fastcc i32 @fsm_search(ptr noundef %0, i8 noundef zeroext %.0.i18)
  br label %fsm_does_block_exist.exit.thread

fsm_does_block_exist.exit.thread:                 ; preds = %RelationGetSmgr.exit.i, %fsm_does_block_exist.exit, %38
  %.1 = phi i32 [ %39, %38 ], [ %23, %fsm_does_block_exist.exit ], [ %23, %RelationGetSmgr.exit.i ]
  ret i32 %.1
}